target datalayout = "e-m:e-p270:32:32-p271:32:32-p272:64:64-i64:64-i128:128-f80:128-n8:16:32:64-S128"
target triple = "x86_64-pc-linux-gnu"

%"class.Ipopt::Ma97SolverInterface" = type { %"class.Ipopt::SparseSymLinearSolverInterface.base", i32, ptr, i32, i32, ptr, ptr, i8, i8, ptr, i32, %struct.ma97_control_d, double, i32, i32, [3 x i32], [3 x i32], i32, i8, %"class.Ipopt::SmartPtr.3", ptr, ptr, ptr, ptr, ptr, ptr, ptr }
%"class.Ipopt::SparseSymLinearSolverInterface.base" = type { %"class.Ipopt::AlgorithmStrategyObject.base" }
%"class.Ipopt::AlgorithmStrategyObject.base" = type <{ %"class.Ipopt::ReferencedObject.base", [4 x i8], %"class.Ipopt::SmartPtr", %"class.Ipopt::SmartPtr.0", %"class.Ipopt::SmartPtr.1", %"class.Ipopt::SmartPtr.2", i8 }>
%"class.Ipopt::ReferencedObject.base" = type <{ ptr, i32 }>
%"class.Ipopt::SmartPtr" = type { ptr }
%"class.Ipopt::SmartPtr.0" = type { ptr }
%"class.Ipopt::SmartPtr.1" = type { ptr }
%"class.Ipopt::SmartPtr.2" = type { ptr }
%struct.ma97_control_d = type { i32, i32, i32, double, i32, i32, i32, double, double, i32, i32, i32, i64, i32, i64, i32, double, [5 x i32], [10 x double] }
%"class.Ipopt::SmartPtr.3" = type { ptr }
%"class.Ipopt::AlgorithmStrategyObject" = type <{ %"class.Ipopt::ReferencedObject.base", [4 x i8], %"class.Ipopt::SmartPtr", %"class.Ipopt::SmartPtr.0", %"class.Ipopt::SmartPtr.1", %"class.Ipopt::SmartPtr.2", i8, [7 x i8] }>

@.str.114 = private unnamed_addr constant [70 x i8] c"HSL_MA97: Enabling scaling %d due to failure of iterative refinement\0A\00", align 1
@.str.115 = private unnamed_addr constant [52 x i8] c"Increasing pivot tolerance for HSL_MA97 from %7.2e \00", align 1
@.str.116 = private unnamed_addr constant [11 x i8] c"to %7.2e.\0A\00", align 1

; Function Attrs: inlinehint mustprogress nounwind uwtable
define linkonce_odr noundef nonnull align 8 dereferenceable(8) ptr @_ZSt3minIdERKT_S2_S2_(ptr noundef nonnull align 8 dereferenceable(8) %0, ptr noundef nonnull align 8 dereferenceable(8) %1) #9 comdat {
  %3 = alloca ptr, align 8
  %4 = alloca ptr, align 8
  %5 = alloca ptr, align 8
  store ptr %0, ptr %4, align 8, !tbaa !105
  store ptr %1, ptr %5, align 8, !tbaa !105
  %6 = load ptr, ptr %5, align 8, !tbaa !105
  %7 = load double, ptr %6, align 8, !tbaa !108
  %8 = load ptr, ptr %4, align 8, !tbaa !105
  %9 = load double, ptr %8, align 8, !tbaa !108
  %10 = fcmp olt double %7, %9
  br i1 %10, label %11, label %13

11:                                               ; preds = %2
  %12 = load ptr, ptr %5, align 8, !tbaa !105
  store ptr %12, ptr %3, align 8
  br label %15

13:                                               ; preds = %2
  %14 = load ptr, ptr %4, align 8, !tbaa !105
  store ptr %14, ptr %3, align 8
  br label %15

15:                                               ; preds = %13, %11
  %16 = load ptr, ptr %3, align 8
  ret ptr %16
}

; Function Attrs: mustprogress nounwind uwtable
define linkonce_odr noundef nonnull align 8 dereferenceable(40) ptr @_ZNK5Ipopt8SmartPtrIKNS_10JournalistEEdeEv(ptr noundef nonnull align 8 dereferenceable(8) %0) #4 comdat align 2 {
  %2 = alloca ptr, align 8
  store ptr %0, ptr %2, align 8, !tbaa !125
  %3 = load ptr, ptr %2, align 8
  %4 = getelementptr inbounds nuw %"class.Ipopt::SmartPtr", ptr %3, i32 0, i32 0
  %5 = load ptr, ptr %4, align 8, !tbaa !135
  ret ptr %5
}

; Function Attrs: inlinehint mustprogress uwtable
define linkonce_odr noundef double @_ZN5Ipopt3MinIdEET_S1_S1_(double noundef %0, double noundef %1) #13 comdat {
  %3 = alloca double, align 8
  %4 = alloca double, align 8
  store double %0, ptr %3, align 8, !tbaa !108
  store double %1, ptr %4, align 8, !tbaa !108
  %5 = call noundef nonnull align 8 dereferenceable(8) ptr @_ZSt3minIdERKT_S2_S2_(ptr noundef nonnull align 8 dereferenceable(8) %3, ptr noundef nonnull align 8 dereferenceable(8) %4)
  %6 = load double, ptr %5, align 8, !tbaa !108
  ret double %6
}

; Function Attrs: mustprogress uwtable
define linkonce_odr noundef nonnull align 8 dereferenceable(40) ptr @_ZNK5Ipopt23AlgorithmStrategyObject5JnlstEv(ptr noundef nonnull align 8 dereferenceable(49) %0) #7 comdat align 2 {
  %2 = alloca ptr, align 8
  store ptr %0, ptr %2, align 8, !tbaa !74
  %3 = load ptr, ptr %2, align 8
  %4 = getelementptr inbounds nuw %"class.Ipopt::AlgorithmStrategyObject", ptr %3, i32 0, i32 2
  %5 = call noundef nonnull align 8 dereferenceable(40) ptr @_ZNK5Ipopt8SmartPtrIKNS_10JournalistEEdeEv(ptr noundef nonnull align 8 dereferenceable(8) %4)
  ret ptr %5
}

; Function Attrs: mustprogress uwtable
define noundef zeroext i1 @_ZN5Ipopt19Ma97SolverInterface15IncreaseQualityEv(ptr noundef nonnull align 8 dereferenceable(440) %0) unnamed_addr #7 align 2 {
  %2 = alloca i1, align 1
  %3 = alloca ptr, align 8
  %4 = alloca i32, align 4
  store ptr %0, ptr %3, align 8, !tbaa !3
  %5 = load ptr, ptr %3, align 8
  call void @llvm.lifetime.start.p0(i64 4, ptr %4) #3
  %6 = getelementptr inbounds nuw %"class.Ipopt::Ma97SolverInterface", ptr %5, i32 0, i32 17
  %7 = load i32, ptr %6, align 8, !tbaa !61
  store i32 %7, ptr %4, align 4, !tbaa !57
  br label %8

8:                                                ; preds = %36, %1
  %9 = load i32, ptr %4, align 4, !tbaa !57
  %10 = icmp slt i32 %9, 3
  br i1 %10, label %12, label %11

11:                                               ; preds = %8
  call void @llvm.lifetime.end.p0(i64 4, ptr %4) #3
  br label %39

12:                                               ; preds = %8
  %13 = getelementptr inbounds nuw %"class.Ipopt::Ma97SolverInterface", ptr %5, i32 0, i32 15
  %14 = load i32, ptr %4, align 4, !tbaa !57
  %15 = sext i32 %14 to i64
  %16 = getelementptr inbounds [3 x i32], ptr %13, i64 0, i64 %15
  %17 = load i32, ptr %16, align 4, !tbaa !63
  switch i32 %17, label %34 [
    i32 3, label %18
    i32 4, label %18
    i32 7, label %18
    i32 8, label %18
  ]

18:                                               ; preds = %12, %12, %12, %12
  %19 = getelementptr inbounds nuw %"class.Ipopt::Ma97SolverInterface", ptr %5, i32 0, i32 8
  store i8 1, ptr %19, align 1, !tbaa !71
  %20 = load i32, ptr %4, align 4, !tbaa !57
  %21 = getelementptr inbounds nuw %"class.Ipopt::Ma97SolverInterface", ptr %5, i32 0, i32 17
  store i32 %20, ptr %21, align 8, !tbaa !61
  %22 = getelementptr inbounds nuw %"class.Ipopt::Ma97SolverInterface", ptr %5, i32 0, i32 16
  %23 = load i32, ptr %4, align 4, !tbaa !57
  %24 = sext i32 %23 to i64
  %25 = getelementptr inbounds [3 x i32], ptr %22, i64 0, i64 %24
  %26 = load i32, ptr %25, align 4, !tbaa !57
  %27 = getelementptr inbounds nuw %"class.Ipopt::Ma97SolverInterface", ptr %5, i32 0, i32 14
  store i32 %26, ptr %27, align 4, !tbaa !62
  %28 = call noundef nonnull align 8 dereferenceable(40) ptr @_ZNK5Ipopt23AlgorithmStrategyObject5JnlstEv(ptr noundef nonnull align 8 dereferenceable(49) %5)
  %29 = getelementptr inbounds nuw %"class.Ipopt::Ma97SolverInterface", ptr %5, i32 0, i32 17
  %30 = load i32, ptr %29, align 8, !tbaa !61
  %31 = load ptr, ptr %28, align 8, !tbaa !8
  %32 = getelementptr inbounds ptr, ptr %31, i64 2
  %33 = load ptr, ptr %32, align 8
  call void (ptr, i32, i32, ptr, ...) %33(ptr noundef nonnull align 8 dereferenceable(40) %28, i32 noundef 6, i32 noundef 7, ptr noundef @.str.114, i32 noundef %30)
  br label %35

34:                                               ; preds = %12
  br label %35

35:                                               ; preds = %34, %18
  br label %36

36:                                               ; preds = %35
  %37 = load i32, ptr %4, align 4, !tbaa !57
  %38 = add nsw i32 %37, 1
  store i32 %38, ptr %4, align 4, !tbaa !57
  br label %8, !llvm.loop !114

39:                                               ; preds = %11
  %40 = getelementptr inbounds nuw %"class.Ipopt::Ma97SolverInterface", ptr %5, i32 0, i32 11
  %41 = getelementptr inbounds nuw %struct.ma97_control_d, ptr %40, i32 0, i32 8
  %42 = load double, ptr %41, align 8, !tbaa !115
  %43 = getelementptr inbounds nuw %"class.Ipopt::Ma97SolverInterface", ptr %5, i32 0, i32 12
  %44 = load double, ptr %43, align 8, !tbaa !116
  %45 = fcmp oge double %42, %44
  br i1 %45, label %46, label %47

46:                                               ; preds = %39
  store i1 false, ptr %2, align 1
  br label %72

47:                                               ; preds = %39
  %48 = getelementptr inbounds nuw %"class.Ipopt::Ma97SolverInterface", ptr %5, i32 0, i32 7
  store i8 1, ptr %48, align 8, !tbaa !106
  %49 = call noundef nonnull align 8 dereferenceable(40) ptr @_ZNK5Ipopt23AlgorithmStrategyObject5JnlstEv(ptr noundef nonnull align 8 dereferenceable(49) %5)
  %50 = getelementptr inbounds nuw %"class.Ipopt::Ma97SolverInterface", ptr %5, i32 0, i32 11
  %51 = getelementptr inbounds nuw %struct.ma97_control_d, ptr %50, i32 0, i32 8
  %52 = load double, ptr %51, align 8, !tbaa !115
  %53 = load ptr, ptr %49, align 8, !tbaa !8
  %54 = getelementptr inbounds ptr, ptr %53, i64 2
  %55 = load ptr, ptr %54, align 8
  call void (ptr, i32, i32, ptr, ...) %55(ptr noundef nonnull align 8 dereferenceable(40) %49, i32 noundef 6, i32 noundef 7, ptr noundef @.str.115, double noundef %52)
  %56 = getelementptr inbounds nuw %"class.Ipopt::Ma97SolverInterface", ptr %5, i32 0, i32 12
  %57 = load double, ptr %56, align 8, !tbaa !116
  %58 = getelementptr inbounds nuw %"class.Ipopt::Ma97SolverInterface", ptr %5, i32 0, i32 11
  %59 = getelementptr inbounds nuw %struct.ma97_control_d, ptr %58, i32 0, i32 8
  %60 = load double, ptr %59, align 8, !tbaa !115
  %61 = call double @pow(double noundef %60, double noundef 7.500000e-01) #3, !tbaa !57
  %62 = call noundef double @_ZN5Ipopt3MinIdEET_S1_S1_(double noundef %57, double noundef %61)
  %63 = getelementptr inbounds nuw %"class.Ipopt::Ma97SolverInterface", ptr %5, i32 0, i32 11
  %64 = getelementptr inbounds nuw %struct.ma97_control_d, ptr %63, i32 0, i32 8
  store double %62, ptr %64, align 8, !tbaa !115
  %65 = call noundef nonnull align 8 dereferenceable(40) ptr @_ZNK5Ipopt23AlgorithmStrategyObject5JnlstEv(ptr noundef nonnull align 8 dereferenceable(49) %5)
  %66 = getelementptr inbounds nuw %"class.Ipopt::Ma97SolverInterface", ptr %5, i32 0, i32 11
  %67 = getelementptr inbounds nuw %struct.ma97_control_d, ptr %66, i32 0, i32 8
  %68 = load double, ptr %67, align 8, !tbaa !115
  %69 = load ptr, ptr %65, align 8, !tbaa !8
  %70 = getelementptr inbounds ptr, ptr %69, i64 2
  %71 = load ptr, ptr %70, align 8
  call void (ptr, i32, i32, ptr, ...) %71(ptr noundef nonnull align 8 dereferenceable(40) %65, i32 noundef 6, i32 noundef 7, ptr noundef @.str.116, double noundef %68)
  store i1 true, ptr %2, align 1
  br label %72

72:                                               ; preds = %47, %46
  %73 = load i1, ptr %2, align 1
  ret i1 %73
}