; Function Attrs: mustprogress uwtable
define noundef zeroext i1 @_ZN5Ipopt19Ma97SolverInterface15IncreaseQualityEv(ptr noundef nonnull align 8 captures(none) dereferenceable(440) %0) unnamed_addr #7 align 2 {
  %2 = getelementptr inbounds nuw i8, ptr %0, i64 368
  %3 = load i32, ptr %2, align 8, !tbaa !61
  %4 = icmp slt i32 %3, 3
  br i1 %4, label %.lr.ph, label %._crit_edge

.lr.ph:                                           ; preds = %1
  %5 = getelementptr inbounds nuw i8, ptr %0, i64 344
  %6 = getelementptr inbounds nuw i8, ptr %0, i64 89
  %7 = getelementptr inbounds nuw i8, ptr %0, i64 356
  %8 = getelementptr inbounds nuw i8, ptr %0, i64 340
  %9 = getelementptr inbounds nuw i8, ptr %0, i64 16
  %10 = sext i32 %3 to i64
  br label %16

._crit_edge:                                      ; preds = %27, %1
  %11 = getelementptr inbounds nuw i8, ptr %0, i64 160
  %12 = load double, ptr %11, align 8, !tbaa !100
  %13 = getelementptr inbounds nuw i8, ptr %0, i64 328
  %14 = load double, ptr %13, align 8, !tbaa !101
  %15 = fcmp ult double %12, %14
  br i1 %15, label %29, label %44

16:                                               ; preds = %.lr.ph, %27
  %indvars.iv = phi i64 [ %10, %.lr.ph ], [ %indvars.iv.next, %27 ]
  %17 = getelementptr inbounds [3 x i32], ptr %5, i64 0, i64 %indvars.iv
  %18 = load i32, ptr %17, align 4, !tbaa !63
  switch i32 %18, label %27 [
    i32 3, label %19
    i32 4, label %19
    i32 7, label %19
    i32 8, label %19
  ]

19:                                               ; preds = %16, %16, %16, %16
  store i8 1, ptr %6, align 1, !tbaa !71
  %20 = trunc nsw i64 %indvars.iv to i32
  store i32 %20, ptr %2, align 8, !tbaa !61
  %21 = getelementptr inbounds [3 x i32], ptr %7, i64 0, i64 %indvars.iv
  %22 = load i32, ptr %21, align 4, !tbaa !57
  store i32 %22, ptr %8, align 4, !tbaa !62
  %23 = load ptr, ptr %9, align 8, !tbaa !36
  %24 = load ptr, ptr %23, align 8, !tbaa !3
  %25 = getelementptr inbounds nuw i8, ptr %24, i64 16
  %26 = load ptr, ptr %25, align 8
  tail call void (ptr, i32, i32, ptr, ...) %26(ptr noundef nonnull align 8 dereferenceable(40) %23, i32 noundef 6, i32 noundef 7, ptr noundef nonnull @.str.114, i32 noundef %20)
  br label %27

27:                                               ; preds = %19, %16
  %indvars.iv.next = add nsw i64 %indvars.iv, 1
  %28 = and i64 %indvars.iv.next, 4294967295
  %exitcond.not = icmp eq i64 %28, 3
  br i1 %exitcond.not, label %._crit_edge, label %16, !llvm.loop !102

29:                                               ; preds = %._crit_edge
  %30 = getelementptr inbounds nuw i8, ptr %0, i64 88
  store i8 1, ptr %30, align 8, !tbaa !93
  %31 = getelementptr inbounds nuw i8, ptr %0, i64 16
  %32 = load ptr, ptr %31, align 8, !tbaa !36
  %33 = load ptr, ptr %32, align 8, !tbaa !3
  %34 = getelementptr inbounds nuw i8, ptr %33, i64 16
  %35 = load ptr, ptr %34, align 8
  tail call void (ptr, i32, i32, ptr, ...) %35(ptr noundef nonnull align 8 dereferenceable(40) %32, i32 noundef 6, i32 noundef 7, ptr noundef nonnull @.str.115, double noundef %12)
  %36 = load double, ptr %13, align 8, !tbaa !101
  %37 = load double, ptr %11, align 8, !tbaa !100
  %38 = tail call double @pow(double noundef %37, double noundef 7.500000e-01) #17, !tbaa !57
  %39 = fcmp olt double %38, %36
  %.sroa.speculated.i = select i1 %39, double %38, double %36
  store double %.sroa.speculated.i, ptr %11, align 8, !tbaa !100
  %40 = load ptr, ptr %31, align 8, !tbaa !36
  %41 = load ptr, ptr %40, align 8, !tbaa !3
  %42 = getelementptr inbounds nuw i8, ptr %41, i64 16
  %43 = load ptr, ptr %42, align 8
  tail call void (ptr, i32, i32, ptr, ...) %43(ptr noundef nonnull align 8 dereferenceable(40) %40, i32 noundef 6, i32 noundef 7, ptr noundef nonnull @.str.116, double noundef %.sroa.speculated.i)
  br label %44

44:                                               ; preds = %._crit_edge, %29
  ret i1 %15
}